target datalayout = "e-m:e-p270:32:32-p271:32:32-p272:64:64-i64:64-i128:128-f80:128-n8:16:32:64-S128"
target triple = "x86_64-pc-linux-gnu"

%struct.H5D_t = type { %struct.H5O_loc_t, %struct.H5G_name_t, ptr }
%struct.H5O_loc_t = type { ptr, i64, i8 }
%struct.H5G_name_t = type { ptr, ptr, i32 }
%struct.H5D_shared_t = type { i64, i8, i64, ptr, ptr, i64, i64, %struct.H5D_dcpl_cache_t, %struct.H5O_layout_t, i8, i32, [32 x i64], [32 x i64], [32 x i64], %struct.anon.6, %struct.H5D_append_flush_t, ptr, ptr }
%struct.H5D_dcpl_cache_t = type { %struct.H5O_fill_t, %struct.H5O_pline_t, %struct.H5O_efl_t }
%struct.H5O_fill_t = type { %struct.H5O_shared_t, i32, ptr, i64, ptr, i32, i32, i8 }
%struct.H5O_shared_t = type { i32, ptr, i32, %union.anon }
%union.anon = type { %struct.H5O_mesg_loc_t }
%struct.H5O_mesg_loc_t = type { i32, i64 }
%struct.H5O_pline_t = type { %struct.H5O_shared_t, i32, i64, i64, ptr }
%struct.H5O_efl_t = type { i64, i64, i64, ptr }
%struct.H5O_layout_t = type { i32, i32, ptr, %union.anon.0, %struct.H5O_storage_t }
%union.anon.0 = type { %struct.H5O_layout_chunk_t }
%struct.H5O_layout_chunk_t = type { i32, i8, i32, [33 x i32], i32, i32, i64, i64, [33 x i64], [33 x i64], [33 x i64], [33 x i64], %union.anon.1 }
%union.anon.1 = type { %struct.H5O_layout_chunk_earray_t }
%struct.H5O_layout_chunk_earray_t = type { %struct.anon.2, i32, [33 x i32], [33 x i64], [33 x i64] }
%struct.anon.2 = type { i8, i8, i8, i8, i8 }
%struct.H5O_storage_t = type { i32, %union.anon.4 }
%union.anon.4 = type { %struct.H5O_storage_virtual_t }
%struct.H5O_storage_virtual_t = type { %struct.H5HG_t, i64, ptr, i64, [32 x i64], i32, i64, i64, i64, i8 }
%struct.H5HG_t = type { i64, i64 }
%struct.anon.6 = type { %struct.H5D_rdcdc_t, %struct.H5D_rdcc_t }
%struct.H5D_rdcdc_t = type { ptr, i64, i64, i64, i8 }
%struct.H5D_rdcc_t = type { %struct.anon.7, i64, i64, double, ptr, ptr, ptr, i64, i32, %struct.H5D_chunk_cached_t, ptr, ptr, ptr, ptr, [32 x i64], [32 x i64], [32 x i32] }
%struct.anon.7 = type { i32, i32, i32, i32 }
%struct.H5D_chunk_cached_t = type { i8, [33 x i64], i64, i32, i64, i32 }
%struct.H5D_append_flush_t = type { i32, [32 x i64], ptr, ptr }
%struct.H5D_chk_idx_info_t = type { ptr, ptr, ptr, ptr }
%struct.H5O_storage_chunk_t = type { i32, i64, ptr, %union.anon.5 }
%union.anon.5 = type { %struct.H5O_storage_chunk_btree_t }
%struct.H5O_storage_chunk_btree_t = type { i64, ptr }
%struct.H5D_chunk_ops_t = type { i8, ptr, ptr, ptr, ptr, ptr, ptr, ptr, ptr, ptr, ptr, ptr, ptr, ptr, ptr, ptr, ptr, ptr, ptr, ptr }
%struct.H5D_chunk_it_ud4_t = type { ptr, i8, i32, ptr }

@H5D_init_g = external global i8, align 1
@H5_libterm_g = external global i8, align 1
@.str.1 = private unnamed_addr constant [102 x i8] c"generated/home/dtcxzyw/WorkSpace/Projects/compilers/llvm-opt-benchmark/bench/hdf5/hdf5/src/H5Dchunk.c\00", align 1
@H5E_DATASET_g = external global i64, align 8
@H5E_BADITER_g = external global i64, align 8
@__func__.H5D__chunk_dump_index = private unnamed_addr constant [22 x i8] c"H5D__chunk_dump_index\00", align 1
@H5E_UNSUPPORTED_g = external global i64, align 8
@.str.67 = private unnamed_addr constant [32 x i8] c"unable to dump chunk index info\00", align 1
@.str.68 = private unnamed_addr constant [54 x i8] c"unable to iterate over chunk index to dump chunk info\00", align 1

; Function Attrs: nounwind uwtable
define i32 @H5D__chunk_dump_index(ptr noundef %0, ptr noundef %1) #0 {
  %3 = alloca i32, align 4
  %4 = alloca ptr, align 8
  %5 = alloca ptr, align 8
  %6 = alloca ptr, align 8
  %7 = alloca i32, align 4
  %8 = alloca i8, align 1
  %9 = alloca %struct.H5D_chk_idx_info_t, align 8
  %10 = alloca %struct.H5D_chunk_it_ud4_t, align 8
  %11 = alloca i32, align 4
  store ptr %0, ptr %4, align 8, !tbaa !8
  store ptr %1, ptr %5, align 8, !tbaa !377
  call void @llvm.lifetime.start.p0(i64 8, ptr %6) #10
  %12 = load ptr, ptr %4, align 8, !tbaa !8
  %13 = getelementptr inbounds nuw %struct.H5D_t, ptr %12, i32 0, i32 2
  %14 = load ptr, ptr %13, align 8, !tbaa !16
  %15 = getelementptr inbounds nuw %struct.H5D_shared_t, ptr %14, i32 0, i32 8
  %16 = getelementptr inbounds nuw %struct.H5O_layout_t, ptr %15, i32 0, i32 4
  %17 = getelementptr inbounds nuw %struct.H5O_storage_t, ptr %16, i32 0, i32 1
  store ptr %17, ptr %6, align 8, !tbaa !56
  call void @llvm.lifetime.start.p0(i64 4, ptr %7) #10
  store i32 0, ptr %7, align 4, !tbaa !10
  call void @llvm.lifetime.start.p0(i64 1, ptr %8) #10
  store i8 0, ptr %8, align 1, !tbaa !12
  %18 = load i8, ptr @H5D_init_g, align 1, !tbaa !12, !range !14, !noundef !15
  %19 = trunc i8 %18 to i1
  br i1 %19, label %24, label %20

20:                                               ; preds = %2
  %21 = load i8, ptr @H5_libterm_g, align 1, !tbaa !12, !range !14, !noundef !15
  %22 = trunc i8 %21 to i1
  %23 = xor i1 %22, true
  br label %24

24:                                               ; preds = %20, %2
  %25 = phi i1 [ true, %2 ], [ %23, %20 ]
  %26 = xor i1 %25, true
  %27 = xor i1 %26, true
  %28 = zext i1 %27 to i32
  %29 = sext i32 %28 to i64
  %30 = call i64 @llvm.expect.i64(i64 %29, i64 1)
  %31 = icmp ne i64 %30, 0
  br i1 %31, label %32, label %138

32:                                               ; preds = %24
  br label %33

33:                                               ; preds = %32
  br label %34

34:                                               ; preds = %33
  br label %35

35:                                               ; preds = %34
  %36 = load ptr, ptr %5, align 8, !tbaa !377
  %37 = icmp ne ptr %36, null
  br i1 %37, label %38, label %136

38:                                               ; preds = %35
  call void @llvm.lifetime.start.p0(i64 32, ptr %9) #10
  call void @llvm.lifetime.start.p0(i64 24, ptr %10) #10
  %39 = load ptr, ptr %6, align 8, !tbaa !56
  %40 = getelementptr inbounds nuw %struct.H5O_storage_chunk_t, ptr %39, i32 0, i32 2
  %41 = load ptr, ptr %40, align 8, !tbaa !72
  %42 = getelementptr inbounds nuw %struct.H5D_chunk_ops_t, ptr %41, i32 0, i32 18
  %43 = load ptr, ptr %42, align 8, !tbaa !379
  %44 = load ptr, ptr %6, align 8, !tbaa !56
  %45 = load ptr, ptr %5, align 8, !tbaa !377
  %46 = call i32 %43(ptr noundef %44, ptr noundef %45)
  %47 = icmp slt i32 %46, 0
  br i1 %47, label %48, label %67

48:                                               ; preds = %38
  br label %49

49:                                               ; preds = %48
  br label %50

50:                                               ; preds = %49
  br label %51

51:                                               ; preds = %50
  %52 = load i64, ptr @H5E_DATASET_g, align 8, !tbaa !24
  %53 = load i64, ptr @H5E_UNSUPPORTED_g, align 8, !tbaa !24
  %54 = call i32 (ptr, ptr, i32, i64, i64, ptr, ...) @H5E_printf_stack(ptr noundef @.str.1, ptr noundef @__func__.H5D__chunk_dump_index, i32 noundef 7207, i64 noundef %52, i64 noundef %53, ptr noundef @.str.67)
  br label %55

55:                                               ; preds = %51
  br label %56

56:                                               ; preds = %55
  store i8 1, ptr %8, align 1, !tbaa !12
  %57 = load i8, ptr %8, align 1, !tbaa !12, !range !14, !noundef !15
  %58 = trunc i8 %57 to i1
  %59 = zext i1 %58 to i8
  store i8 %59, ptr %8, align 1, !tbaa !12
  br label %60

60:                                               ; preds = %56
  br label %61

61:                                               ; preds = %60
  br label %62

62:                                               ; preds = %61
  store i32 -1, ptr %7, align 4, !tbaa !10
  store i32 12, ptr %11, align 4
  br label %133

63:                                               ; No predecessors!
  br label %64

64:                                               ; preds = %63
  br label %65

65:                                               ; preds = %64
  br label %66

66:                                               ; preds = %65
  br label %67

67:                                               ; preds = %66, %38
  %68 = load ptr, ptr %4, align 8, !tbaa !8
  %69 = getelementptr inbounds nuw %struct.H5D_t, ptr %68, i32 0, i32 0
  %70 = getelementptr inbounds nuw %struct.H5O_loc_t, ptr %69, i32 0, i32 0
  %71 = load ptr, ptr %70, align 8, !tbaa !172
  %72 = getelementptr inbounds nuw %struct.H5D_chk_idx_info_t, ptr %9, i32 0, i32 0
  store ptr %71, ptr %72, align 8, !tbaa !65
  %73 = load ptr, ptr %4, align 8, !tbaa !8
  %74 = getelementptr inbounds nuw %struct.H5D_t, ptr %73, i32 0, i32 2
  %75 = load ptr, ptr %74, align 8, !tbaa !16
  %76 = getelementptr inbounds nuw %struct.H5D_shared_t, ptr %75, i32 0, i32 7
  %77 = getelementptr inbounds nuw %struct.H5D_dcpl_cache_t, ptr %76, i32 0, i32 1
  %78 = getelementptr inbounds nuw %struct.H5D_chk_idx_info_t, ptr %9, i32 0, i32 1
  store ptr %77, ptr %78, align 8, !tbaa !69
  %79 = load ptr, ptr %4, align 8, !tbaa !8
  %80 = getelementptr inbounds nuw %struct.H5D_t, ptr %79, i32 0, i32 2
  %81 = load ptr, ptr %80, align 8, !tbaa !16
  %82 = getelementptr inbounds nuw %struct.H5D_shared_t, ptr %81, i32 0, i32 8
  %83 = getelementptr inbounds nuw %struct.H5O_layout_t, ptr %82, i32 0, i32 3
  %84 = getelementptr inbounds nuw %struct.H5D_chk_idx_info_t, ptr %9, i32 0, i32 2
  store ptr %83, ptr %84, align 8, !tbaa !70
  %85 = load ptr, ptr %6, align 8, !tbaa !56
  %86 = getelementptr inbounds nuw %struct.H5D_chk_idx_info_t, ptr %9, i32 0, i32 3
  store ptr %85, ptr %86, align 8, !tbaa !71
  %87 = load ptr, ptr %5, align 8, !tbaa !377
  %88 = getelementptr inbounds nuw %struct.H5D_chunk_it_ud4_t, ptr %10, i32 0, i32 0
  store ptr %87, ptr %88, align 8, !tbaa !380
  %89 = getelementptr inbounds nuw %struct.H5D_chunk_it_ud4_t, ptr %10, i32 0, i32 1
  store i8 0, ptr %89, align 8, !tbaa !382
  %90 = load ptr, ptr %4, align 8, !tbaa !8
  %91 = getelementptr inbounds nuw %struct.H5D_t, ptr %90, i32 0, i32 2
  %92 = load ptr, ptr %91, align 8, !tbaa !16
  %93 = getelementptr inbounds nuw %struct.H5D_shared_t, ptr %92, i32 0, i32 8
  %94 = getelementptr inbounds nuw %struct.H5O_layout_t, ptr %93, i32 0, i32 3
  %95 = getelementptr inbounds nuw %struct.H5O_layout_chunk_t, ptr %94, i32 0, i32 2
  %96 = load i32, ptr %95, align 8, !tbaa !23
  %97 = getelementptr inbounds nuw %struct.H5D_chunk_it_ud4_t, ptr %10, i32 0, i32 2
  store i32 %96, ptr %97, align 4, !tbaa !383
  %98 = load ptr, ptr %4, align 8, !tbaa !8
  %99 = getelementptr inbounds nuw %struct.H5D_t, ptr %98, i32 0, i32 2
  %100 = load ptr, ptr %99, align 8, !tbaa !16
  %101 = getelementptr inbounds nuw %struct.H5D_shared_t, ptr %100, i32 0, i32 8
  %102 = getelementptr inbounds nuw %struct.H5O_layout_t, ptr %101, i32 0, i32 3
  %103 = getelementptr inbounds nuw %struct.H5O_layout_chunk_t, ptr %102, i32 0, i32 3
  %104 = getelementptr inbounds [33 x i32], ptr %103, i64 0, i64 0
  %105 = getelementptr inbounds nuw %struct.H5D_chunk_it_ud4_t, ptr %10, i32 0, i32 3
  store ptr %104, ptr %105, align 8, !tbaa !384
  %106 = load ptr, ptr %6, align 8, !tbaa !56
  %107 = getelementptr inbounds nuw %struct.H5O_storage_chunk_t, ptr %106, i32 0, i32 2
  %108 = load ptr, ptr %107, align 8, !tbaa !72
  %109 = getelementptr inbounds nuw %struct.H5D_chunk_ops_t, ptr %108, i32 0, i32 11
  %110 = load ptr, ptr %109, align 8, !tbaa !257
  %111 = call i32 %110(ptr noundef %9, ptr noundef @H5D__chunk_dump_index_cb, ptr noundef %10)
  %112 = icmp slt i32 %111, 0
  br i1 %112, label %113, label %132

113:                                              ; preds = %67
  br label %114

114:                                              ; preds = %113
  br label %115

115:                                              ; preds = %114
  br label %116

116:                                              ; preds = %115
  %117 = load i64, ptr @H5E_DATASET_g, align 8, !tbaa !24
  %118 = load i64, ptr @H5E_BADITER_g, align 8, !tbaa !24
  %119 = call i32 (ptr, ptr, i32, i64, i64, ptr, ...) @H5E_printf_stack(ptr noundef @.str.1, ptr noundef @__func__.H5D__chunk_dump_index, i32 noundef 7224, i64 noundef %117, i64 noundef %118, ptr noundef @.str.68)
  br label %120

120:                                              ; preds = %116
  br label %121

121:                                              ; preds = %120
  store i8 1, ptr %8, align 1, !tbaa !12
  %122 = load i8, ptr %8, align 1, !tbaa !12, !range !14, !noundef !15
  %123 = trunc i8 %122 to i1
  %124 = zext i1 %123 to i8
  store i8 %124, ptr %8, align 1, !tbaa !12
  br label %125

125:                                              ; preds = %121
  br label %126

126:                                              ; preds = %125
  br label %127

127:                                              ; preds = %126
  store i32 -1, ptr %7, align 4, !tbaa !10
  store i32 12, ptr %11, align 4
  br label %133

128:                                              ; No predecessors!
  br label %129

129:                                              ; preds = %128
  br label %130

130:                                              ; preds = %129
  br label %131

131:                                              ; preds = %130
  br label %132

132:                                              ; preds = %131, %67
  store i32 0, ptr %11, align 4
  br label %133

133:                                              ; preds = %127, %62, %132
  call void @llvm.lifetime.end.p0(i64 24, ptr %10) #10
  call void @llvm.lifetime.end.p0(i64 32, ptr %9) #10
  %134 = load i32, ptr %11, align 4
  switch i32 %134, label %140 [
    i32 0, label %135
    i32 12, label %137
  ]

135:                                              ; preds = %133
  br label %136

136:                                              ; preds = %135, %35
  br label %137

137:                                              ; preds = %136, %133
  br label %138

138:                                              ; preds = %137, %24
  %139 = load i32, ptr %7, align 4, !tbaa !10
  store i32 %139, ptr %3, align 4
  store i32 1, ptr %11, align 4
  br label %140

140:                                              ; preds = %138, %133
  call void @llvm.lifetime.end.p0(i64 1, ptr %8) #10
  call void @llvm.lifetime.end.p0(i64 4, ptr %7) #10
  call void @llvm.lifetime.end.p0(i64 8, ptr %6) #10
  %141 = load i32, ptr %3, align 4
  ret i32 %141
}