; Function Attrs: nounwind uwtable
define range(i32 -1, 1) i32 @H5D__chunk_dump_index(ptr noundef readonly captures(none) %0, ptr noundef %1) local_unnamed_addr #0 {
  %3 = alloca %struct.H5D_chk_idx_info_t, align 8
  %4 = alloca %struct.H5D_chunk_it_ud4_t, align 8
  %5 = getelementptr inbounds nuw i8, ptr %0, i64 48
  %6 = load ptr, ptr %5, align 8, !tbaa !10
  %7 = getelementptr inbounds nuw i8, ptr %6, i64 2168
  %8 = load i8, ptr @H5D_init_g, align 1, !tbaa !3, !range !7, !noundef !8
  %9 = trunc nuw i8 %8 to i1
  %10 = load i8, ptr @H5_libterm_g, align 1, !range !7
  %11 = trunc nuw i8 %10 to i1
  %12 = xor i1 %11, true
  %13 = select i1 %9, i1 true, i1 %12
  %14 = icmp ne ptr %1, null
  %or.cond = and i1 %14, %13
  br i1 %or.cond, label %15, label %50, !prof !248

15:                                               ; preds = %2
  call void @llvm.lifetime.start.p0(i64 32, ptr nonnull %3) #15
  call void @llvm.lifetime.start.p0(i64 24, ptr nonnull %4) #15
  %16 = getelementptr inbounds nuw i8, ptr %6, i64 2184
  %17 = load ptr, ptr %16, align 8, !tbaa !51
  %18 = getelementptr inbounds nuw i8, ptr %17, i64 144
  %19 = load ptr, ptr %18, align 8, !tbaa !356
  %20 = tail call i32 %19(ptr noundef nonnull %7, ptr noundef nonnull %1) #15
  %21 = icmp slt i32 %20, 0
  br i1 %21, label %22, label %26

22:                                               ; preds = %15
  %23 = load i64, ptr @H5E_DATASET_g, align 8, !tbaa !21
  %24 = load i64, ptr @H5E_UNSUPPORTED_g, align 8, !tbaa !21
  %25 = tail call i32 (ptr, ptr, i32, i64, i64, ptr, ...) @H5E_printf_stack(ptr noundef nonnull @.str.1, ptr noundef nonnull @__func__.H5D__chunk_dump_index, i32 noundef 7207, i64 noundef %23, i64 noundef %24, ptr noundef nonnull @.str.67) #15
  br label %49

26:                                               ; preds = %15
  %27 = load ptr, ptr %0, align 8, !tbaa !186
  store ptr %27, ptr %3, align 8, !tbaa !64
  %28 = load ptr, ptr %5, align 8, !tbaa !10
  %29 = getelementptr inbounds nuw i8, ptr %28, i64 144
  %30 = getelementptr inbounds nuw i8, ptr %3, i64 8
  store ptr %29, ptr %30, align 8, !tbaa !69
  %31 = getelementptr inbounds nuw i8, ptr %28, i64 264
  %32 = getelementptr inbounds nuw i8, ptr %3, i64 16
  store ptr %31, ptr %32, align 8, !tbaa !70
  %33 = getelementptr inbounds nuw i8, ptr %3, i64 24
  store ptr %7, ptr %33, align 8, !tbaa !71
  store ptr %1, ptr %4, align 8, !tbaa !357
  %34 = getelementptr inbounds nuw i8, ptr %4, i64 8
  store i8 0, ptr %34, align 8, !tbaa !361
  %35 = getelementptr inbounds nuw i8, ptr %28, i64 272
  %36 = load i32, ptr %35, align 8, !tbaa !20
  %37 = getelementptr inbounds nuw i8, ptr %4, i64 12
  store i32 %36, ptr %37, align 4, !tbaa !362
  %38 = getelementptr inbounds nuw i8, ptr %28, i64 276
  %39 = getelementptr inbounds nuw i8, ptr %4, i64 16
  store ptr %38, ptr %39, align 8, !tbaa !363
  %40 = load ptr, ptr %16, align 8, !tbaa !51
  %41 = getelementptr inbounds nuw i8, ptr %40, i64 88
  %42 = load ptr, ptr %41, align 8, !tbaa !251
  %43 = call i32 %42(ptr noundef nonnull %3, ptr noundef nonnull @H5D__chunk_dump_index_cb, ptr noundef nonnull %4) #15
  %44 = icmp slt i32 %43, 0
  br i1 %44, label %45, label %49

45:                                               ; preds = %26
  %46 = load i64, ptr @H5E_DATASET_g, align 8, !tbaa !21
  %47 = load i64, ptr @H5E_BADITER_g, align 8, !tbaa !21
  %48 = call i32 (ptr, ptr, i32, i64, i64, ptr, ...) @H5E_printf_stack(ptr noundef nonnull @.str.1, ptr noundef nonnull @__func__.H5D__chunk_dump_index, i32 noundef 7224, i64 noundef %46, i64 noundef %47, ptr noundef nonnull @.str.68) #15
  br label %49

49:                                               ; preds = %26, %45, %22
  %.1 = phi i32 [ -1, %22 ], [ -1, %45 ], [ 0, %26 ]
  call void @llvm.lifetime.end.p0(i64 24, ptr nonnull %4) #15
  call void @llvm.lifetime.end.p0(i64 32, ptr nonnull %3) #15
  br label %50

50:                                               ; preds = %49, %2
  %.019 = phi i32 [ %.1, %49 ], [ 0, %2 ]
  ret i32 %.019
}